target datalayout = "e-m:e-p270:32:32-p271:32:32-p272:64:64-i64:64-i128:128-f80:128-n8:16:32:64-S128"
target triple = "x86_64-pc-linux-gnu"

%struct.SDL_Rect = type { i32, i32, i32, i32 }
%struct.SDL_VideoData = type { ptr, ptr, i32, ptr, i64, i32, ptr, i32, i64, i64, %struct.X11_ClipboardData, %struct.X11_ClipboardData, ptr, i64, %struct.X11_SettingsData, i8, %struct.anon.1, [256 x i32], i8, i8, i8, i64, i8, %struct.SDL_Point, i32, ptr, i32, i8, i32, %struct.anon.2, i8, i64, ptr, ptr, i8, i8, i8 }
%struct.X11_ClipboardData = type { ptr, ptr, ptr, i64, i32 }
%struct.X11_SettingsData = type { ptr }
%struct.anon.1 = type { i64, i64, i64, i64, i64, i64, i64, i64, i64, i64, i64, i64, i64, i64, i64, i64, i64, i64, i64, i64, i64, i64, i64, i64, i64, i64, i64, i64, i64, i64, i64, i64, i64, i64, i64, i64, i64, i64, i64, i64, i64, i64, i64, i64, i64, i64, i64, i64, i64, i64, i64, i64, i64 }
%struct.SDL_Point = type { i32, i32 }
%struct.anon.2 = type { ptr, i32, i32, i32, i16, i32, i32 }
%struct.SDL_Window = type { i32, ptr, ptr, i32, i32, i32, i32, i32, i32, i32, i32, float, float, i32, i32, i64, i64, float, i8, i8, i32, i32, %struct.SDL_Rect, %struct.SDL_Rect, %struct.SDL_Rect, i8, i8, i8, %struct.SDL_DisplayMode, %struct.SDL_DisplayMode, %struct.SDL_HDROutputProperties, float, ptr, i8, i8, i8, i8, i8, i8, i8, i8, i8, i32, i32, i32, i32, %struct.SDL_Rect, i32, i8, %struct.SDL_Rect, i32, %struct.SDL_Rect, ptr, ptr, i32, float, i32, i32, ptr, ptr, ptr, ptr, ptr, ptr, ptr, ptr, ptr }
%struct.SDL_DisplayMode = type { i32, i32, i32, i32, float, float, i32, i32, ptr }
%struct.SDL_HDROutputProperties = type { float, float }
%struct.XSizeHints = type { i64, i32, i32, i32, i32, i32, i32, i32, i32, i32, i32, %struct.anon.5, %struct.anon.5, i32, i32, i32 }
%struct.anon.5 = type { i32, i32 }
%struct.SDL_WindowData = type { ptr, i64, ptr, i64, i8, %struct.XShmSegmentInfo, ptr, ptr, ptr, i8, i32, i32, i32, i32, i8, i8, i8, i64, i32, i64, i8, %struct.SDL_Point, %struct.XConfigureEvent, %struct.XConfigureEvent, ptr, i64, i64, i64, i8, i64, ptr, i8, [4 x i64], %struct.SDL_Rect, i64, %struct._XSyncValue, i8, %struct.SDL_Rect, %struct.SDL_DisplayMode, i32, i32, i8, i8, i8, i8, i8, i8, i8, i8, i32, %struct.XPoint, ptr, ptr, i32, i32, i8 }
%struct.XShmSegmentInfo = type { i64, i32, ptr, i32 }
%struct.XConfigureEvent = type { i32, i64, i32, ptr, i64, i64, i32, i32, i32, i32, i32, i64, i32 }
%struct._XSyncValue = type { i32, i32 }
%struct.XPoint = type { i16, i16 }

@X11_XFree = external global ptr, align 8
@X11_XAllocSizeHints = external global ptr, align 8
@X11_XGetWMNormalHints = external global ptr, align 8
@X11_XSetWMNormalHints = external global ptr, align 8

; Function Attrs: nounwind uwtable
define hidden void @X11_SetWindowMinMax(ptr noundef %0, i1 noundef zeroext %1) #0 {
  %3 = alloca ptr, align 8
  %4 = alloca i8, align 1
  %5 = alloca ptr, align 8
  %6 = alloca ptr, align 8
  %7 = alloca ptr, align 8
  %8 = alloca i64, align 8
  store ptr %0, ptr %3, align 8
  %9 = zext i1 %1 to i8
  store i8 %9, ptr %4, align 1
  call void @llvm.lifetime.start.p0(i64 8, ptr %5) #7
  %10 = load ptr, ptr %3, align 8
  %11 = getelementptr inbounds nuw %struct.SDL_Window, ptr %10, i32 0, i32 59
  %12 = load ptr, ptr %11, align 8
  store ptr %12, ptr %5, align 8
  call void @llvm.lifetime.start.p0(i64 8, ptr %6) #7
  %13 = load ptr, ptr %5, align 8
  %14 = getelementptr inbounds nuw %struct.SDL_WindowData, ptr %13, i32 0, i32 24
  %15 = load ptr, ptr %14, align 8
  %16 = getelementptr inbounds nuw %struct.SDL_VideoData, ptr %15, i32 0, i32 0
  %17 = load ptr, ptr %16, align 8
  store ptr %17, ptr %6, align 8
  call void @llvm.lifetime.start.p0(i64 8, ptr %7) #7
  %18 = load ptr, ptr @X11_XAllocSizeHints, align 8
  %19 = call ptr %18()
  store ptr %19, ptr %7, align 8
  call void @llvm.lifetime.start.p0(i64 8, ptr %8) #7
  store i64 0, ptr %8, align 8
  %20 = load ptr, ptr @X11_XGetWMNormalHints, align 8
  %21 = load ptr, ptr %6, align 8
  %22 = load ptr, ptr %5, align 8
  %23 = getelementptr inbounds nuw %struct.SDL_WindowData, ptr %22, i32 0, i32 1
  %24 = load i64, ptr %23, align 8
  %25 = load ptr, ptr %7, align 8
  %26 = call i32 %20(ptr noundef %21, i64 noundef %24, ptr noundef %25, ptr noundef %8)
  %27 = load ptr, ptr %7, align 8
  %28 = getelementptr inbounds nuw %struct.XSizeHints, ptr %27, i32 0, i32 0
  %29 = load i64, ptr %28, align 8
  %30 = and i64 %29, -177
  store i64 %30, ptr %28, align 8
  %31 = load ptr, ptr %5, align 8
  %32 = getelementptr inbounds nuw %struct.SDL_WindowData, ptr %31, i32 0, i32 0
  %33 = load ptr, ptr %32, align 8
  %34 = getelementptr inbounds nuw %struct.SDL_Window, ptr %33, i32 0, i32 15
  %35 = load i64, ptr %34, align 8
  %36 = and i64 %35, 32
  %37 = icmp ne i64 %36, 0
  br i1 %37, label %38, label %146

38:                                               ; preds = %2
  %39 = load ptr, ptr %5, align 8
  %40 = getelementptr inbounds nuw %struct.SDL_WindowData, ptr %39, i32 0, i32 0
  %41 = load ptr, ptr %40, align 8
  %42 = getelementptr inbounds nuw %struct.SDL_Window, ptr %41, i32 0, i32 7
  %43 = load i32, ptr %42, align 8
  %44 = icmp ne i32 %43, 0
  br i1 %44, label %52, label %45

45:                                               ; preds = %38
  %46 = load ptr, ptr %5, align 8
  %47 = getelementptr inbounds nuw %struct.SDL_WindowData, ptr %46, i32 0, i32 0
  %48 = load ptr, ptr %47, align 8
  %49 = getelementptr inbounds nuw %struct.SDL_Window, ptr %48, i32 0, i32 8
  %50 = load i32, ptr %49, align 4
  %51 = icmp ne i32 %50, 0
  br i1 %51, label %52, label %71

52:                                               ; preds = %45, %38
  %53 = load ptr, ptr %7, align 8
  %54 = getelementptr inbounds nuw %struct.XSizeHints, ptr %53, i32 0, i32 0
  %55 = load i64, ptr %54, align 8
  %56 = or i64 %55, 16
  store i64 %56, ptr %54, align 8
  %57 = load ptr, ptr %5, align 8
  %58 = getelementptr inbounds nuw %struct.SDL_WindowData, ptr %57, i32 0, i32 0
  %59 = load ptr, ptr %58, align 8
  %60 = getelementptr inbounds nuw %struct.SDL_Window, ptr %59, i32 0, i32 7
  %61 = load i32, ptr %60, align 8
  %62 = load ptr, ptr %7, align 8
  %63 = getelementptr inbounds nuw %struct.XSizeHints, ptr %62, i32 0, i32 5
  store i32 %61, ptr %63, align 8
  %64 = load ptr, ptr %5, align 8
  %65 = getelementptr inbounds nuw %struct.SDL_WindowData, ptr %64, i32 0, i32 0
  %66 = load ptr, ptr %65, align 8
  %67 = getelementptr inbounds nuw %struct.SDL_Window, ptr %66, i32 0, i32 8
  %68 = load i32, ptr %67, align 4
  %69 = load ptr, ptr %7, align 8
  %70 = getelementptr inbounds nuw %struct.XSizeHints, ptr %69, i32 0, i32 6
  store i32 %68, ptr %70, align 4
  br label %71

71:                                               ; preds = %52, %45
  %72 = load ptr, ptr %5, align 8
  %73 = getelementptr inbounds nuw %struct.SDL_WindowData, ptr %72, i32 0, i32 0
  %74 = load ptr, ptr %73, align 8
  %75 = getelementptr inbounds nuw %struct.SDL_Window, ptr %74, i32 0, i32 9
  %76 = load i32, ptr %75, align 8
  %77 = icmp ne i32 %76, 0
  br i1 %77, label %85, label %78

78:                                               ; preds = %71
  %79 = load ptr, ptr %5, align 8
  %80 = getelementptr inbounds nuw %struct.SDL_WindowData, ptr %79, i32 0, i32 0
  %81 = load ptr, ptr %80, align 8
  %82 = getelementptr inbounds nuw %struct.SDL_Window, ptr %81, i32 0, i32 10
  %83 = load i32, ptr %82, align 4
  %84 = icmp ne i32 %83, 0
  br i1 %84, label %85, label %104

85:                                               ; preds = %78, %71
  %86 = load ptr, ptr %7, align 8
  %87 = getelementptr inbounds nuw %struct.XSizeHints, ptr %86, i32 0, i32 0
  %88 = load i64, ptr %87, align 8
  %89 = or i64 %88, 32
  store i64 %89, ptr %87, align 8
  %90 = load ptr, ptr %5, align 8
  %91 = getelementptr inbounds nuw %struct.SDL_WindowData, ptr %90, i32 0, i32 0
  %92 = load ptr, ptr %91, align 8
  %93 = getelementptr inbounds nuw %struct.SDL_Window, ptr %92, i32 0, i32 9
  %94 = load i32, ptr %93, align 8
  %95 = load ptr, ptr %7, align 8
  %96 = getelementptr inbounds nuw %struct.XSizeHints, ptr %95, i32 0, i32 7
  store i32 %94, ptr %96, align 8
  %97 = load ptr, ptr %5, align 8
  %98 = getelementptr inbounds nuw %struct.SDL_WindowData, ptr %97, i32 0, i32 0
  %99 = load ptr, ptr %98, align 8
  %100 = getelementptr inbounds nuw %struct.SDL_Window, ptr %99, i32 0, i32 10
  %101 = load i32, ptr %100, align 4
  %102 = load ptr, ptr %7, align 8
  %103 = getelementptr inbounds nuw %struct.XSizeHints, ptr %102, i32 0, i32 8
  store i32 %101, ptr %103, align 4
  br label %104

104:                                              ; preds = %85, %78
  %105 = load ptr, ptr %5, align 8
  %106 = getelementptr inbounds nuw %struct.SDL_WindowData, ptr %105, i32 0, i32 0
  %107 = load ptr, ptr %106, align 8
  %108 = getelementptr inbounds nuw %struct.SDL_Window, ptr %107, i32 0, i32 11
  %109 = load float, ptr %108, align 8
  %110 = fcmp ogt float %109, 0.000000e+00
  br i1 %110, label %118, label %111

111:                                              ; preds = %104
  %112 = load ptr, ptr %5, align 8
  %113 = getelementptr inbounds nuw %struct.SDL_WindowData, ptr %112, i32 0, i32 0
  %114 = load ptr, ptr %113, align 8
  %115 = getelementptr inbounds nuw %struct.SDL_Window, ptr %114, i32 0, i32 12
  %116 = load float, ptr %115, align 4
  %117 = fcmp ogt float %116, 0.000000e+00
  br i1 %117, label %118, label %145

118:                                              ; preds = %111, %104
  %119 = load ptr, ptr %7, align 8
  %120 = getelementptr inbounds nuw %struct.XSizeHints, ptr %119, i32 0, i32 0
  %121 = load i64, ptr %120, align 8
  %122 = or i64 %121, 128
  store i64 %122, ptr %120, align 8
  %123 = load ptr, ptr %5, align 8
  %124 = getelementptr inbounds nuw %struct.SDL_WindowData, ptr %123, i32 0, i32 0
  %125 = load ptr, ptr %124, align 8
  %126 = getelementptr inbounds nuw %struct.SDL_Window, ptr %125, i32 0, i32 11
  %127 = load float, ptr %126, align 8
  %128 = load ptr, ptr %7, align 8
  %129 = getelementptr inbounds nuw %struct.XSizeHints, ptr %128, i32 0, i32 11
  %130 = getelementptr inbounds nuw %struct.anon.5, ptr %129, i32 0, i32 0
  %131 = load ptr, ptr %7, align 8
  %132 = getelementptr inbounds nuw %struct.XSizeHints, ptr %131, i32 0, i32 11
  %133 = getelementptr inbounds nuw %struct.anon.5, ptr %132, i32 0, i32 1
  call void @SDL_CalculateFraction(float noundef %127, ptr noundef %130, ptr noundef %133)
  %134 = load ptr, ptr %5, align 8
  %135 = getelementptr inbounds nuw %struct.SDL_WindowData, ptr %134, i32 0, i32 0
  %136 = load ptr, ptr %135, align 8
  %137 = getelementptr inbounds nuw %struct.SDL_Window, ptr %136, i32 0, i32 12
  %138 = load float, ptr %137, align 4
  %139 = load ptr, ptr %7, align 8
  %140 = getelementptr inbounds nuw %struct.XSizeHints, ptr %139, i32 0, i32 12
  %141 = getelementptr inbounds nuw %struct.anon.5, ptr %140, i32 0, i32 0
  %142 = load ptr, ptr %7, align 8
  %143 = getelementptr inbounds nuw %struct.XSizeHints, ptr %142, i32 0, i32 12
  %144 = getelementptr inbounds nuw %struct.anon.5, ptr %143, i32 0, i32 1
  call void @SDL_CalculateFraction(float noundef %138, ptr noundef %141, ptr noundef %144)
  br label %145

145:                                              ; preds = %118, %111
  br label %191

146:                                              ; preds = %2
  %147 = load ptr, ptr %7, align 8
  %148 = getelementptr inbounds nuw %struct.XSizeHints, ptr %147, i32 0, i32 0
  %149 = load i64, ptr %148, align 8
  %150 = or i64 %149, 48
  store i64 %150, ptr %148, align 8
  %151 = load i8, ptr %4, align 1, !range !5, !noundef !6
  %152 = trunc i8 %151 to i1
  br i1 %152, label %153, label %160

153:                                              ; preds = %146
  %154 = load ptr, ptr %5, align 8
  %155 = getelementptr inbounds nuw %struct.SDL_WindowData, ptr %154, i32 0, i32 0
  %156 = load ptr, ptr %155, align 8
  %157 = getelementptr inbounds nuw %struct.SDL_Window, ptr %156, i32 0, i32 23
  %158 = getelementptr inbounds nuw %struct.SDL_Rect, ptr %157, i32 0, i32 2
  %159 = load i32, ptr %158, align 8
  br label %165

160:                                              ; preds = %146
  %161 = load ptr, ptr %3, align 8
  %162 = getelementptr inbounds nuw %struct.SDL_Window, ptr %161, i32 0, i32 22
  %163 = getelementptr inbounds nuw %struct.SDL_Rect, ptr %162, i32 0, i32 2
  %164 = load i32, ptr %163, align 8
  br label %165

165:                                              ; preds = %160, %153
  %166 = phi i32 [ %159, %153 ], [ %164, %160 ]
  %167 = load ptr, ptr %7, align 8
  %168 = getelementptr inbounds nuw %struct.XSizeHints, ptr %167, i32 0, i32 7
  store i32 %166, ptr %168, align 8
  %169 = load ptr, ptr %7, align 8
  %170 = getelementptr inbounds nuw %struct.XSizeHints, ptr %169, i32 0, i32 5
  store i32 %166, ptr %170, align 8
  %171 = load i8, ptr %4, align 1, !range !5, !noundef !6
  %172 = trunc i8 %171 to i1
  br i1 %172, label %173, label %180

173:                                              ; preds = %165
  %174 = load ptr, ptr %5, align 8
  %175 = getelementptr inbounds nuw %struct.SDL_WindowData, ptr %174, i32 0, i32 0
  %176 = load ptr, ptr %175, align 8
  %177 = getelementptr inbounds nuw %struct.SDL_Window, ptr %176, i32 0, i32 23
  %178 = getelementptr inbounds nuw %struct.SDL_Rect, ptr %177, i32 0, i32 3
  %179 = load i32, ptr %178, align 4
  br label %185

180:                                              ; preds = %165
  %181 = load ptr, ptr %3, align 8
  %182 = getelementptr inbounds nuw %struct.SDL_Window, ptr %181, i32 0, i32 22
  %183 = getelementptr inbounds nuw %struct.SDL_Rect, ptr %182, i32 0, i32 3
  %184 = load i32, ptr %183, align 4
  br label %185

185:                                              ; preds = %180, %173
  %186 = phi i32 [ %179, %173 ], [ %184, %180 ]
  %187 = load ptr, ptr %7, align 8
  %188 = getelementptr inbounds nuw %struct.XSizeHints, ptr %187, i32 0, i32 8
  store i32 %186, ptr %188, align 4
  %189 = load ptr, ptr %7, align 8
  %190 = getelementptr inbounds nuw %struct.XSizeHints, ptr %189, i32 0, i32 6
  store i32 %186, ptr %190, align 4
  br label %191

191:                                              ; preds = %185, %145
  %192 = load ptr, ptr @X11_XSetWMNormalHints, align 8
  %193 = load ptr, ptr %6, align 8
  %194 = load ptr, ptr %5, align 8
  %195 = getelementptr inbounds nuw %struct.SDL_WindowData, ptr %194, i32 0, i32 1
  %196 = load i64, ptr %195, align 8
  %197 = load ptr, ptr %7, align 8
  call void %192(ptr noundef %193, i64 noundef %196, ptr noundef %197)
  %198 = load ptr, ptr @X11_XFree, align 8
  %199 = load ptr, ptr %7, align 8
  %200 = call i32 %198(ptr noundef %199)
  call void @llvm.lifetime.end.p0(i64 8, ptr %8) #7
  call void @llvm.lifetime.end.p0(i64 8, ptr %7) #7
  call void @llvm.lifetime.end.p0(i64 8, ptr %6) #7
  call void @llvm.lifetime.end.p0(i64 8, ptr %5) #7
  ret void
}