; Function Attrs: nounwind uwtable
define hidden void @X11_SetWindowMinMax(ptr noundef readonly captures(none) %0, i1 noundef zeroext %1) local_unnamed_addr #0 {
  %3 = alloca i64, align 8
  %4 = getelementptr inbounds nuw i8, ptr %0, i64 392
  %5 = load ptr, ptr %4, align 8
  %6 = getelementptr inbounds nuw i8, ptr %5, i64 336
  %7 = load ptr, ptr %6, align 8
  %8 = load ptr, ptr %7, align 8
  %9 = load ptr, ptr @X11_XAllocSizeHints, align 8
  %10 = tail call ptr %9() #12
  call void @llvm.lifetime.start.p0(i64 8, ptr nonnull %3) #12
  store i64 0, ptr %3, align 8
  %11 = load ptr, ptr @X11_XGetWMNormalHints, align 8
  %12 = getelementptr inbounds nuw i8, ptr %5, i64 8
  %13 = load i64, ptr %12, align 8
  %14 = call i32 %11(ptr noundef %8, i64 noundef %13, ptr noundef %10, ptr noundef nonnull %3) #12
  %15 = load i64, ptr %10, align 8
  %16 = and i64 %15, -177
  store i64 %16, ptr %10, align 8
  %17 = load ptr, ptr %5, align 8
  %18 = getelementptr inbounds nuw i8, ptr %17, i64 72
  %19 = load i64, ptr %18, align 8
  %20 = and i64 %19, 32
  %.not = icmp eq i64 %20, 0
  br i1 %.not, label %77, label %21

21:                                               ; preds = %2
  %22 = getelementptr inbounds nuw i8, ptr %17, i64 40
  %23 = load i32, ptr %22, align 8
  %.not45 = icmp eq i32 %23, 0
  br i1 %.not45, label %24, label %27

24:                                               ; preds = %21
  %25 = getelementptr inbounds nuw i8, ptr %17, i64 44
  %26 = load i32, ptr %25, align 4
  %.not46 = icmp eq i32 %26, 0
  br i1 %.not46, label %37, label %27

27:                                               ; preds = %24, %21
  %28 = or disjoint i64 %16, 16
  store i64 %28, ptr %10, align 8
  %29 = load ptr, ptr %5, align 8
  %30 = getelementptr inbounds nuw i8, ptr %29, i64 40
  %31 = load i32, ptr %30, align 8
  %32 = getelementptr inbounds nuw i8, ptr %10, i64 24
  store i32 %31, ptr %32, align 8
  %33 = load ptr, ptr %5, align 8
  %34 = getelementptr inbounds nuw i8, ptr %33, i64 44
  %35 = load i32, ptr %34, align 4
  %36 = getelementptr inbounds nuw i8, ptr %10, i64 28
  store i32 %35, ptr %36, align 4
  %.pre = load ptr, ptr %5, align 8
  br label %37

37:                                               ; preds = %27, %24
  %38 = phi i64 [ %28, %27 ], [ %16, %24 ]
  %39 = phi ptr [ %.pre, %27 ], [ %17, %24 ]
  %40 = getelementptr inbounds nuw i8, ptr %39, i64 48
  %41 = load i32, ptr %40, align 8
  %.not47 = icmp eq i32 %41, 0
  br i1 %.not47, label %42, label %45

42:                                               ; preds = %37
  %43 = getelementptr inbounds nuw i8, ptr %39, i64 52
  %44 = load i32, ptr %43, align 4
  %.not48 = icmp eq i32 %44, 0
  br i1 %.not48, label %55, label %45

45:                                               ; preds = %42, %37
  %46 = or i64 %38, 32
  store i64 %46, ptr %10, align 8
  %47 = load ptr, ptr %5, align 8
  %48 = getelementptr inbounds nuw i8, ptr %47, i64 48
  %49 = load i32, ptr %48, align 8
  %50 = getelementptr inbounds nuw i8, ptr %10, i64 32
  store i32 %49, ptr %50, align 8
  %51 = load ptr, ptr %5, align 8
  %52 = getelementptr inbounds nuw i8, ptr %51, i64 52
  %53 = load i32, ptr %52, align 4
  %54 = getelementptr inbounds nuw i8, ptr %10, i64 36
  store i32 %53, ptr %54, align 4
  %.pre50 = load ptr, ptr %5, align 8
  br label %55

55:                                               ; preds = %45, %42
  %56 = phi i64 [ %46, %45 ], [ %38, %42 ]
  %57 = phi ptr [ %.pre50, %45 ], [ %39, %42 ]
  %58 = getelementptr inbounds nuw i8, ptr %57, i64 56
  %59 = load float, ptr %58, align 8
  %60 = fcmp ogt float %59, 0.000000e+00
  br i1 %60, label %65, label %61

61:                                               ; preds = %55
  %62 = getelementptr inbounds nuw i8, ptr %57, i64 60
  %63 = load float, ptr %62, align 4
  %64 = fcmp ogt float %63, 0.000000e+00
  br i1 %64, label %65, label %97

65:                                               ; preds = %61, %55
  %66 = or i64 %56, 128
  store i64 %66, ptr %10, align 8
  %67 = load ptr, ptr %5, align 8
  %68 = getelementptr inbounds nuw i8, ptr %67, i64 56
  %69 = load float, ptr %68, align 8
  %70 = getelementptr inbounds nuw i8, ptr %10, i64 48
  %71 = getelementptr inbounds nuw i8, ptr %10, i64 52
  call void @SDL_CalculateFraction(float noundef %69, ptr noundef nonnull %70, ptr noundef nonnull %71) #12
  %72 = load ptr, ptr %5, align 8
  %73 = getelementptr inbounds nuw i8, ptr %72, i64 60
  %74 = load float, ptr %73, align 4
  %75 = getelementptr inbounds nuw i8, ptr %10, i64 56
  %76 = getelementptr inbounds nuw i8, ptr %10, i64 60
  call void @SDL_CalculateFraction(float noundef %74, ptr noundef nonnull %75, ptr noundef nonnull %76) #12
  br label %97

77:                                               ; preds = %2
  %78 = or disjoint i64 %16, 48
  store i64 %78, ptr %10, align 8
  br i1 %1, label %79, label %87

79:                                               ; preds = %77
  %80 = load ptr, ptr %5, align 8
  %81 = getelementptr inbounds nuw i8, ptr %80, i64 128
  %82 = load i32, ptr %81, align 8
  %83 = getelementptr inbounds nuw i8, ptr %10, i64 32
  store i32 %82, ptr %83, align 8
  %84 = getelementptr inbounds nuw i8, ptr %10, i64 24
  store i32 %82, ptr %84, align 8
  %85 = load ptr, ptr %5, align 8
  %86 = getelementptr inbounds nuw i8, ptr %85, i64 132
  br label %93

87:                                               ; preds = %77
  %88 = getelementptr inbounds nuw i8, ptr %0, i64 112
  %89 = load i32, ptr %88, align 8
  %90 = getelementptr inbounds nuw i8, ptr %10, i64 32
  store i32 %89, ptr %90, align 8
  %91 = getelementptr inbounds nuw i8, ptr %10, i64 24
  store i32 %89, ptr %91, align 8
  %92 = getelementptr inbounds nuw i8, ptr %0, i64 116
  br label %93

93:                                               ; preds = %87, %79
  %.in44 = phi ptr [ %86, %79 ], [ %92, %87 ]
  %94 = load i32, ptr %.in44, align 4
  %95 = getelementptr inbounds nuw i8, ptr %10, i64 36
  store i32 %94, ptr %95, align 4
  %96 = getelementptr inbounds nuw i8, ptr %10, i64 28
  store i32 %94, ptr %96, align 4
  br label %97

97:                                               ; preds = %61, %65, %93
  %98 = load ptr, ptr @X11_XSetWMNormalHints, align 8
  %99 = load i64, ptr %12, align 8
  call void %98(ptr noundef %8, i64 noundef %99, ptr noundef nonnull %10) #12
  %100 = load ptr, ptr @X11_XFree, align 8
  %101 = call i32 %100(ptr noundef nonnull %10) #12
  call void @llvm.lifetime.end.p0(i64 8, ptr nonnull %3) #12
  ret void
}